; Function Attrs: mustprogress nounwind uwtable
define internal void @_ZN12_GLOBAL__N_150UsageReportingTest_TestFlagHelpHRF_on_flag_04_TestD2Ev(ptr noundef nonnull align 8 dereferenceable(24) %this) unnamed_addr #8 align 2 personality ptr @__gxx_personality_v0 {
entry:
  store ptr getelementptr inbounds ({ [8 x ptr] }, ptr @_ZTVN12_GLOBAL__N_118UsageReportingTestE, i64 0, i32 0, i64 2), ptr %this, align 8
  invoke void @_ZN4absl14flags_internal16SetFlagsHelpModeENS0_8HelpModeE(i32 noundef 0)
          to label %invoke.cont.i unwind label %terminate.lpad.i

invoke.cont.i:                                    ; preds = %entry
  invoke void @_ZN4absl14flags_internal23SetFlagsHelpMatchSubstrESt17basic_string_viewIcSt11char_traitsIcEE(i64 0, ptr nonnull @.str.54)
          to label %invoke.cont2.i unwind label %terminate.lpad.i

invoke.cont2.i:                                   ; preds = %invoke.cont.i
  invoke void @_ZN4absl14flags_internal18SetFlagsHelpFormatENS0_10HelpFormatE(i32 noundef 0)
          to label %_ZN12_GLOBAL__N_118UsageReportingTestD2Ev.exit unwind label %terminate.lpad.i

terminate.lpad.i:                                 ; preds = %invoke.cont2.i, %invoke.cont.i, %entry
  %0 = landingpad { ptr, i32 }
          catch ptr null
  %1 = extractvalue { ptr, i32 } %0, 0
  tail call void @__clang_call_terminate(ptr %1) #24
  unreachable

_ZN12_GLOBAL__N_118UsageReportingTestD2Ev.exit:   ; preds = %invoke.cont2.i
  %flag_saver_.i = getelementptr inbounds i8, ptr %this, i64 16
  tail call void @_ZN4absl9FlagSaverD1Ev(ptr noundef nonnull align 8 dereferenceable(8) %flag_saver_.i) #23
  tail call void @_ZN7testing4TestD2Ev(ptr noundef nonnull align 8 dereferenceable(16) %this) #23
  ret void
}